; Function Attrs: mustprogress uwtable
define void @_ZNK10open_spiel6y_game4Move8ToStringB5cxx11Ev(ptr dead_on_unwind noalias writable sret(%"class.std::__cxx11::basic_string") align 8 %0, ptr nocapture noundef nonnull readonly align 2 dereferenceable(4) %1) local_unnamed_addr #4 align 2 personality ptr @__gxx_personality_v0 {
  %3 = alloca %"class.std::allocator", align 1
  %4 = alloca %"class.std::allocator", align 1
  %5 = alloca %"class.absl::debian2::AlphaNum", align 8
  %6 = alloca %"class.std::__cxx11::basic_string", align 8
  %7 = alloca %"class.std::allocator", align 1
  %8 = alloca %"class.absl::debian2::AlphaNum", align 8
  %9 = getelementptr inbounds nuw i8, ptr %1, i64 2
  %10 = load i16, ptr %9, align 2
  switch i16 %10, label %23 [
    i16 -2, label %11
    i16 -1, label %17
  ]

11:                                               ; preds = %2
  call void @_ZNSaIcEC1Ev(ptr noundef nonnull align 1 dereferenceable(1) %3) #26
  %12 = invoke noundef ptr @_ZNSt7__cxx1112basic_stringIcSt11char_traitsIcESaIcEE13_M_local_dataEv(ptr noundef nonnull align 8 dereferenceable(32) %0)
          to label %.noexc unwind label %15

.noexc:                                           ; preds = %11
  invoke void @_ZNSt7__cxx1112basic_stringIcSt11char_traitsIcESaIcEE12_Alloc_hiderC1EPcRKS3_(ptr noundef nonnull align 8 dereferenceable(8) %0, ptr noundef %12, ptr noundef nonnull align 1 dereferenceable(1) %3)
          to label %.noexc8 unwind label %15

.noexc8:                                          ; preds = %.noexc
  invoke void @_ZNSt7__cxx1112basic_stringIcSt11char_traitsIcESaIcEE12_M_constructIPKcEEvT_S8_St20forward_iterator_tag(ptr noundef nonnull align 8 dereferenceable(32) %0, ptr noundef nonnull @.str.8, ptr noundef nonnull getelementptr inbounds (i8, ptr @.str.8, i64 7))
          to label %_ZNSt7__cxx1112basic_stringIcSt11char_traitsIcESaIcEEC2IS3_EEPKcRKS3_.exit unwind label %13

13:                                               ; preds = %.noexc8
  %14 = landingpad { ptr, i32 }
          cleanup
  call void @_ZNSaIcED2Ev(ptr noundef nonnull align 1 dereferenceable(1) %0) #26
  br label %.body

15:                                               ; preds = %.noexc, %11
  %16 = landingpad { ptr, i32 }
          cleanup
  br label %.body

17:                                               ; preds = %2
  call void @_ZNSaIcEC1Ev(ptr noundef nonnull align 1 dereferenceable(1) %4) #26
  %18 = invoke noundef ptr @_ZNSt7__cxx1112basic_stringIcSt11char_traitsIcESaIcEE13_M_local_dataEv(ptr noundef nonnull align 8 dereferenceable(32) %0)
          to label %.noexc9 unwind label %21

.noexc9:                                          ; preds = %17
  invoke void @_ZNSt7__cxx1112basic_stringIcSt11char_traitsIcESaIcEE12_Alloc_hiderC1EPcRKS3_(ptr noundef nonnull align 8 dereferenceable(8) %0, ptr noundef %18, ptr noundef nonnull align 1 dereferenceable(1) %4)
          to label %.noexc10 unwind label %21

.noexc10:                                         ; preds = %.noexc9
  invoke void @_ZNSt7__cxx1112basic_stringIcSt11char_traitsIcESaIcEE12_M_constructIPKcEEvT_S8_St20forward_iterator_tag(ptr noundef nonnull align 8 dereferenceable(32) %0, ptr noundef nonnull @.str.9, ptr noundef nonnull getelementptr inbounds (i8, ptr @.str.9, i64 4))
          to label %_ZNSt7__cxx1112basic_stringIcSt11char_traitsIcESaIcEEC2IS3_EEPKcRKS3_.exit unwind label %19

19:                                               ; preds = %.noexc10
  %20 = landingpad { ptr, i32 }
          cleanup
  call void @_ZNSaIcED2Ev(ptr noundef nonnull align 1 dereferenceable(1) %0) #26
  br label %.body

21:                                               ; preds = %.noexc9, %17
  %22 = landingpad { ptr, i32 }
          cleanup
  br label %.body

23:                                               ; preds = %2
  %24 = load i8, ptr %1, align 2
  %25 = add i8 %24, 97
  call void @_ZNSaIcEC1Ev(ptr noundef nonnull align 1 dereferenceable(1) %7) #26
  %26 = invoke noundef ptr @_ZNSt7__cxx1112basic_stringIcSt11char_traitsIcESaIcEE13_M_local_dataEv(ptr noundef nonnull align 8 dereferenceable(32) %6)
          to label %.noexc14 unwind label %48

.noexc14:                                         ; preds = %23
  invoke void @_ZNSt7__cxx1112basic_stringIcSt11char_traitsIcESaIcEE12_Alloc_hiderC1EPcRKS3_(ptr noundef nonnull align 8 dereferenceable(8) %6, ptr noundef %26, ptr noundef nonnull align 1 dereferenceable(1) %7)
          to label %.noexc15 unwind label %48

.noexc15:                                         ; preds = %.noexc14
  invoke void @_ZNSt7__cxx1112basic_stringIcSt11char_traitsIcESaIcEE12_M_constructEmc(ptr noundef nonnull align 8 dereferenceable(32) %6, i64 noundef 1, i8 noundef signext %25)
          to label %_ZNSt7__cxx1112basic_stringIcSt11char_traitsIcESaIcEEC2IS3_EEmcRKS3_.exit unwind label %27

27:                                               ; preds = %.noexc15
  %28 = landingpad { ptr, i32 }
          cleanup
  call void @_ZNSaIcED2Ev(ptr noundef nonnull align 1 dereferenceable(1) %6) #26
  br label %.body

_ZNSt7__cxx1112basic_stringIcSt11char_traitsIcESaIcEEC2IS3_EEmcRKS3_.exit: ; preds = %.noexc15
  %29 = call noundef ptr @_ZNKSt7__cxx1112basic_stringIcSt11char_traitsIcESaIcEE4dataEv(ptr noundef nonnull align 8 dereferenceable(32) %6) #26
  %30 = call noundef i64 @_ZNKSt7__cxx1112basic_stringIcSt11char_traitsIcESaIcEE4sizeEv(ptr noundef nonnull align 8 dereferenceable(32) %6) #26
  store ptr %29, ptr %5, align 8
  %31 = icmp sgt i64 %30, -1
  br i1 %31, label %_ZN4absl7debian28AlphaNumC2ISaIcEEERKNSt7__cxx1112basic_stringIcSt11char_traitsIcET_EE.exit, label %32

32:                                               ; preds = %_ZNSt7__cxx1112basic_stringIcSt11char_traitsIcESaIcEEC2IS3_EEmcRKS3_.exit
  call void @llvm.trap()
  unreachable

_ZN4absl7debian28AlphaNumC2ISaIcEEERKNSt7__cxx1112basic_stringIcSt11char_traitsIcET_EE.exit: ; preds = %_ZNSt7__cxx1112basic_stringIcSt11char_traitsIcESaIcEEC2IS3_EEmcRKS3_.exit
  %33 = getelementptr inbounds nuw i8, ptr %5, i64 8
  store i64 %30, ptr %33, align 8
  %34 = getelementptr inbounds nuw i8, ptr %1, i64 1
  %35 = load i8, ptr %34, align 1
  %36 = sext i8 %35 to i32
  %37 = add nsw i32 %36, 1
  %38 = getelementptr inbounds nuw i8, ptr %8, i64 16
  %39 = invoke noundef ptr @_ZN4absl7debian216numbers_internal15FastIntToBufferEiPc(i32 noundef %37, ptr noundef nonnull %38)
          to label %.noexc18 unwind label %50

.noexc18:                                         ; preds = %_ZN4absl7debian28AlphaNumC2ISaIcEEERKNSt7__cxx1112basic_stringIcSt11char_traitsIcET_EE.exit
  %40 = ptrtoint ptr %39 to i64
  %41 = ptrtoint ptr %38 to i64
  %42 = sub i64 %40, %41
  store ptr %38, ptr %8, align 8
  %43 = icmp sgt i64 %42, -1
  br i1 %43, label %45, label %44

44:                                               ; preds = %.noexc18
  call void @llvm.trap()
  unreachable

45:                                               ; preds = %.noexc18
  %46 = getelementptr inbounds nuw i8, ptr %8, i64 8
  store i64 %42, ptr %46, align 8
  invoke void @_ZN4absl7debian26StrCatB5cxx11ERKNS0_8AlphaNumES3_(ptr dead_on_unwind writable sret(%"class.std::__cxx11::basic_string") align 8 %0, ptr noundef nonnull align 8 dereferenceable(48) %5, ptr noundef nonnull align 8 dereferenceable(48) %8)
          to label %47 unwind label %50

47:                                               ; preds = %45
  call void @_ZNSt7__cxx1112basic_stringIcSt11char_traitsIcESaIcEED1Ev(ptr noundef nonnull align 8 dereferenceable(32) %6) #26
  br label %_ZNSt7__cxx1112basic_stringIcSt11char_traitsIcESaIcEEC2IS3_EEPKcRKS3_.exit

48:                                               ; preds = %.noexc14, %23
  %49 = landingpad { ptr, i32 }
          cleanup
  br label %.body

50:                                               ; preds = %_ZN4absl7debian28AlphaNumC2ISaIcEEERKNSt7__cxx1112basic_stringIcSt11char_traitsIcET_EE.exit, %45
  %51 = landingpad { ptr, i32 }
          cleanup
  call void @_ZNSt7__cxx1112basic_stringIcSt11char_traitsIcESaIcEED1Ev(ptr noundef nonnull align 8 dereferenceable(32) %6) #26
  br label %.body

_ZNSt7__cxx1112basic_stringIcSt11char_traitsIcESaIcEEC2IS3_EEPKcRKS3_.exit: ; preds = %.noexc10, %.noexc8, %47
  %.sink = phi ptr [ %7, %47 ], [ %3, %.noexc8 ], [ %4, %.noexc10 ]
  call void @_ZNSaIcED1Ev(ptr noundef nonnull align 1 dereferenceable(1) %.sink) #26
  ret void

.body:                                            ; preds = %50, %27, %48, %21, %19, %15, %13
  %.sink19 = phi ptr [ %3, %13 ], [ %3, %15 ], [ %4, %19 ], [ %4, %21 ], [ %7, %48 ], [ %7, %27 ], [ %7, %50 ]
  %.pn6 = phi { ptr, i32 } [ %14, %13 ], [ %16, %15 ], [ %20, %19 ], [ %22, %21 ], [ %49, %48 ], [ %28, %27 ], [ %51, %50 ]
  call void @_ZNSaIcED1Ev(ptr noundef nonnull align 1 dereferenceable(1) %.sink19) #26
  resume { ptr, i32 } %.pn6
}